target datalayout = "e-m:e-p270:32:32-p271:32:32-p272:64:64-i64:64-i128:128-f80:128-n8:16:32:64-S128"
target triple = "x86_64-pc-linux-gnu"

%struct._zval_struct = type { %union._zend_value, %union.anon, %union.anon.2 }
%union._zend_value = type { i64 }
%union.anon = type { i32 }
%union.anon.2 = type { i32 }
%struct._zend_refcounted_h = type { i32, %union.anon.3 }
%union.anon.3 = type { i32 }
%struct._zend_string = type { %struct._zend_refcounted_h, i64, i64, [1 x i8] }

; Function Attrs: nounwind uwtable
define internal i32 @sxe_property_exists(ptr noundef %0, ptr noundef %1, i32 noundef %2, ptr noundef %3) #0 {
  %5 = alloca i32, align 4
  %6 = alloca ptr, align 8
  %7 = alloca ptr, align 8
  %8 = alloca i32, align 4
  %9 = alloca ptr, align 8
  %10 = alloca %struct._zval_struct, align 8
  %11 = alloca ptr, align 8
  %12 = alloca ptr, align 8
  store ptr %0, ptr %6, align 8
  store ptr %1, ptr %7, align 8
  store i32 %2, ptr %8, align 4
  store ptr %3, ptr %9, align 8
  br label %13

13:                                               ; preds = %4
  store ptr %10, ptr %11, align 8
  %14 = load ptr, ptr %7, align 8
  store ptr %14, ptr %12, align 8
  %15 = load ptr, ptr %12, align 8
  %16 = load ptr, ptr %11, align 8
  %17 = getelementptr inbounds %struct._zval_struct, ptr %16, i32 0, i32 0
  store ptr %15, ptr %17, align 8
  %18 = load ptr, ptr %12, align 8
  %19 = getelementptr inbounds %struct._zend_string, ptr %18, i32 0, i32 0
  %20 = getelementptr inbounds %struct._zend_refcounted_h, ptr %19, i32 0, i32 1
  %21 = load i32, ptr %20, align 4
  store i32 %21, ptr %5, align 4
  %22 = load i32, ptr %5, align 4
  %23 = and i32 %22, 1008
  %24 = and i32 %23, 64
  %25 = icmp ne i32 %24, 0
  %26 = select i1 %25, i32 6, i32 262
  %27 = load ptr, ptr %11, align 8
  %28 = getelementptr inbounds %struct._zval_struct, ptr %27, i32 0, i32 1
  store i32 %26, ptr %28, align 8
  br label %29

29:                                               ; preds = %13
  %30 = load ptr, ptr %6, align 8
  %31 = load i32, ptr %8, align 4
  %32 = call i32 @sxe_prop_dim_exists(ptr noundef %30, ptr noundef %10, i32 noundef %31, i1 noundef zeroext true, i1 noundef zeroext false)
  ret i32 %32
}