; Function Attrs: nounwind uwtable
define internal noundef i32 @sxe_property_exists(ptr nocapture noundef %0, ptr noundef %1, i32 noundef %2, ptr nocapture readnone %3) #1 {
  %5 = alloca %struct._zval_struct, align 8
  store ptr %1, ptr %5, align 8
  %6 = getelementptr inbounds i8, ptr %1, i64 4
  %7 = load i32, ptr %6, align 4
  %8 = and i32 %7, 64
  %.not = icmp eq i32 %8, 0
  %9 = select i1 %.not, i32 262, i32 6
  %10 = getelementptr inbounds i8, ptr %5, i64 8
  store i32 %9, ptr %10, align 8
  %11 = call fastcc i32 @sxe_prop_dim_exists(ptr noundef %0, ptr noundef nonnull %5, i32 noundef %2, i1 noundef zeroext true, i1 noundef zeroext false), !range !7
  ret i32 %11
}